target datalayout = "e-m:e-p270:32:32-p271:32:32-p272:64:64-i64:64-i128:128-f80:128-n8:16:32:64-S128"
target triple = "x86_64-pc-linux-gnu"

%struct.node_state_flags_t = type { i32, ptr }

; Function Attrs: nounwind uwtable
define dso_local i32 @parse_node_state_flag(ptr noundef %0) #0 {
  %2 = alloca i32, align 4
  %3 = alloca ptr, align 8
  %4 = alloca i32, align 4
  %5 = alloca i32, align 4
  %6 = alloca i32, align 4
  store ptr %0, ptr %3, align 8
  call void @llvm.lifetime.start.p0(i64 4, ptr %4) #11
  %7 = load ptr, ptr %3, align 8
  %8 = call i64 @strlen(ptr noundef %7) #12
  %9 = trunc i64 %8 to i32
  store i32 %9, ptr %4, align 4
  call void @llvm.lifetime.start.p0(i64 4, ptr %5) #11
  store i32 0, ptr %5, align 4
  br label %10

10:                                               ; preds = %52, %1
  %11 = load i32, ptr %5, align 4
  %12 = sext i32 %11 to i64
  %13 = icmp ult i64 %12, 20
  br i1 %13, label %15, label %14

14:                                               ; preds = %10
  store i32 2, ptr %6, align 4
  br label %55

15:                                               ; preds = %10
  %16 = load ptr, ptr %3, align 8
  %17 = load i32, ptr %5, align 4
  %18 = sext i32 %17 to i64
  %19 = getelementptr inbounds [20 x %struct.node_state_flags_t], ptr @node_state_flags, i64 0, i64 %18
  %20 = getelementptr inbounds nuw %struct.node_state_flags_t, ptr %19, i32 0, i32 1
  %21 = load ptr, ptr %20, align 8
  %22 = load i32, ptr %4, align 4
  %23 = sext i32 %22 to i64
  %24 = load i32, ptr %5, align 4
  %25 = sext i32 %24 to i64
  %26 = getelementptr inbounds [20 x %struct.node_state_flags_t], ptr @node_state_flags, i64 0, i64 %25
  %27 = getelementptr inbounds nuw %struct.node_state_flags_t, ptr %26, i32 0, i32 1
  %28 = load ptr, ptr %27, align 8
  %29 = call i64 @strlen(ptr noundef %28) #12
  %30 = icmp ult i64 %23, %29
  br i1 %30, label %31, label %34

31:                                               ; preds = %15
  %32 = load i32, ptr %4, align 4
  %33 = sext i32 %32 to i64
  br label %41

34:                                               ; preds = %15
  %35 = load i32, ptr %5, align 4
  %36 = sext i32 %35 to i64
  %37 = getelementptr inbounds [20 x %struct.node_state_flags_t], ptr @node_state_flags, i64 0, i64 %36
  %38 = getelementptr inbounds nuw %struct.node_state_flags_t, ptr %37, i32 0, i32 1
  %39 = load ptr, ptr %38, align 8
  %40 = call i64 @strlen(ptr noundef %39) #12
  br label %41

41:                                               ; preds = %34, %31
  %42 = phi i64 [ %33, %31 ], [ %40, %34 ]
  %43 = call i32 @xstrncasecmp(ptr noundef %16, ptr noundef %21, i64 noundef %42)
  %44 = icmp ne i32 %43, 0
  br i1 %44, label %51, label %45

45:                                               ; preds = %41
  %46 = load i32, ptr %5, align 4
  %47 = sext i32 %46 to i64
  %48 = getelementptr inbounds [20 x %struct.node_state_flags_t], ptr @node_state_flags, i64 0, i64 %47
  %49 = getelementptr inbounds nuw %struct.node_state_flags_t, ptr %48, i32 0, i32 0
  %50 = load i32, ptr %49, align 16
  store i32 %50, ptr %2, align 4
  store i32 1, ptr %6, align 4
  br label %55

51:                                               ; preds = %41
  br label %52

52:                                               ; preds = %51
  %53 = load i32, ptr %5, align 4
  %54 = add nsw i32 %53, 1
  store i32 %54, ptr %5, align 4
  br label %10, !llvm.loop !51

55:                                               ; preds = %45, %14
  call void @llvm.lifetime.end.p0(i64 4, ptr %5) #11
  %56 = load i32, ptr %6, align 4
  switch i32 %56, label %58 [
    i32 2, label %57
  ]

57:                                               ; preds = %55
  store i32 0, ptr %2, align 4
  store i32 1, ptr %6, align 4
  br label %58

58:                                               ; preds = %57, %55
  call void @llvm.lifetime.end.p0(i64 4, ptr %4) #11
  %59 = load i32, ptr %2, align 4
  ret i32 %59
}