; Function Attrs: nounwind uwtable
define dso_local i32 @parse_node_state_flag(ptr noundef %0) local_unnamed_addr #1 {
  %2 = tail call i64 @strlen(ptr noundef nonnull dereferenceable(1) %0) #25
  %sext = shl i64 %2, 32
  %3 = ashr exact i64 %sext, 32
  br label %5

4:                                                ; preds = %5
  %indvars.iv.next = add nuw nsw i64 %indvars.iv, 1
  %exitcond = icmp eq i64 %indvars.iv.next, 20
  br i1 %exitcond, label %.loopexit, label %5, !llvm.loop !52

5:                                                ; preds = %1, %4
  %indvars.iv = phi i64 [ 0, %1 ], [ %indvars.iv.next, %4 ]
  %6 = getelementptr inbounds nuw [20 x %struct.node_state_flags_t], ptr @node_state_flags, i64 0, i64 %indvars.iv
  %7 = getelementptr inbounds nuw i8, ptr %6, i64 8
  %8 = load ptr, ptr %7, align 8
  %9 = tail call i64 @strlen(ptr noundef nonnull dereferenceable(1) %8) #25
  %. = tail call i64 @llvm.umin.i64(i64 %3, i64 %9)
  %10 = tail call i32 @xstrncasecmp(ptr noundef nonnull %0, ptr noundef nonnull %8, i64 noundef %.) #24
  %.not = icmp eq i32 %10, 0
  br i1 %.not, label %11, label %4

11:                                               ; preds = %5
  %12 = load i32, ptr %6, align 16
  br label %.loopexit

.loopexit:                                        ; preds = %4, %11
  %spec.select = phi i32 [ %12, %11 ], [ 0, %4 ]
  ret i32 %spec.select
}